target datalayout = "e-m:e-p270:32:32-p271:32:32-p272:64:64-i64:64-i128:128-f80:128-n8:16:32:64-S128"
target triple = "x86_64-pc-linux-gnu"

%struct.CalloutNameEntry = type { ptr, i32, i32 }

; Function Attrs: nounwind uwtable
define internal i32 @i_free_callout_name_entry(i64 noundef %0, i64 noundef %1, i64 noundef %2) #0 {
  %4 = alloca i64, align 8
  %5 = alloca i64, align 8
  %6 = alloca i64, align 8
  %7 = alloca ptr, align 8
  %8 = alloca ptr, align 8
  store i64 %0, ptr %4, align 8, !tbaa !15
  store i64 %1, ptr %5, align 8, !tbaa !15
  store i64 %2, ptr %6, align 8, !tbaa !15
  call void @llvm.lifetime.start.p0(i64 8, ptr %7) #8
  call void @llvm.lifetime.start.p0(i64 8, ptr %8) #8
  %9 = load i64, ptr %4, align 8, !tbaa !15
  %10 = inttoptr i64 %9 to ptr
  store ptr %10, ptr %7, align 8, !tbaa !9
  %11 = load i64, ptr %5, align 8, !tbaa !15
  %12 = inttoptr i64 %11 to ptr
  store ptr %12, ptr %8, align 8, !tbaa !9
  %13 = load ptr, ptr %8, align 8, !tbaa !9
  %14 = icmp ne ptr %13, null
  br i1 %14, label %15, label %19

15:                                               ; preds = %3
  %16 = load ptr, ptr %8, align 8, !tbaa !9
  %17 = getelementptr inbounds nuw %struct.CalloutNameEntry, ptr %16, i32 0, i32 0
  %18 = load ptr, ptr %17, align 8, !tbaa !86
  call void @free(ptr noundef %18) #8
  br label %19

19:                                               ; preds = %15, %3
  %20 = load ptr, ptr %7, align 8, !tbaa !9
  call void @free(ptr noundef %20) #8
  %21 = load ptr, ptr %8, align 8, !tbaa !9
  call void @free(ptr noundef %21) #8
  call void @llvm.lifetime.end.p0(i64 8, ptr %8) #8
  call void @llvm.lifetime.end.p0(i64 8, ptr %7) #8
  ret i32 2
}