; Function Attrs: mustprogress nounwind willreturn uwtable
define internal noundef i32 @i_free_callout_name_entry(i64 noundef %0, i64 noundef %1, i64 %2) #15 {
  %4 = inttoptr i64 %1 to ptr
  %.not = icmp eq i64 %1, 0
  br i1 %.not, label %7, label %5

5:                                                ; preds = %3
  %6 = load ptr, ptr %4, align 8, !tbaa !74
  tail call void @free(ptr noundef %6) #24
  br label %7

7:                                                ; preds = %5, %3
  %8 = inttoptr i64 %0 to ptr
  tail call void @free(ptr noundef %8) #24
  tail call void @free(ptr noundef %4) #24
  ret i32 2
}